; ModuleID = '23/165.c'
source_filename = "23/165.c"
target datalayout = "e-m:e-p270:32:32-p271:32:32-p272:64:64-i64:64-f80:128-n8:16:32:64-S128"
target triple = "x86_64-pc-linux-gnu"

@.str = private unnamed_addr constant [3 x i8] c"%c\00", align 1
@.str.1 = private unnamed_addr constant [4 x i8] c"%s \00", align 1
@.str.2 = private unnamed_addr constant [3 x i8] c"%s\00", align 1

; Function Attrs: noinline nounwind uwtable
define dso_local void @main() #0 {
  %1 = alloca [100 x [10 x i8]], align 16
  %2 = alloca i8, align 1
  %3 = alloca i32, align 4
  %4 = alloca i32, align 4
  %5 = bitcast [100 x [10 x i8]]* %1 to i8*
  call void @llvm.memset.p0i8.i64(i8* align 16 %5, i8 0, i64 1000, i1 false)
  store i32 0, i32* %3, align 4
  store i32 0, i32* %4, align 4
  store i8 65, i8* %2, align 1
  br label %6

6:                                                ; preds = %37, %0
  %7 = load i8, i8* %2, align 1
  %8 = sext i8 %7 to i32
  %9 = icmp ne i32 %8, 10
  br i1 %9, label %10, label %38

10:                                               ; preds = %6
  %11 = call i32 (i8*, ...) @__isoc99_scanf(i8* getelementptr inbounds ([3 x i8], [3 x i8]* @.str, i64 0, i64 0), i8* %2)
  %12 = load i8, i8* %2, align 1
  %13 = sext i8 %12 to i32
  %14 = icmp ne i32 %13, 32
  br i1 %14, label %15, label %29

15:                                               ; preds = %10
  %16 = load i8, i8* %2, align 1
  %17 = sext i8 %16 to i32
  %18 = icmp ne i32 %17, 10
  br i1 %18, label %19, label %29

19:                                               ; preds = %15
  %20 = load i8, i8* %2, align 1
  %21 = load i32, i32* %3, align 4
  %22 = sext i32 %21 to i64
  %23 = getelementptr inbounds [100 x [10 x i8]], [100 x [10 x i8]]* %1, i64 0, i64 %22
  %24 = load i32, i32* %4, align 4
  %25 = sext i32 %24 to i64
  %26 = getelementptr inbounds [10 x i8], [10 x i8]* %23, i64 0, i64 %25
  store i8 %20, i8* %26, align 1
  %27 = load i32, i32* %4, align 4
  %28 = add nsw i32 %27, 1
  store i32 %28, i32* %4, align 4
  br label %37

29:                                               ; preds = %15, %10
  %30 = load i8, i8* %2, align 1
  %31 = sext i8 %30 to i32
  %32 = icmp eq i32 %31, 32
  br i1 %32, label %33, label %36

33:                                               ; preds = %29
  %34 = load i32, i32* %3, align 4
  %35 = add nsw i32 %34, 1
  store i32 %35, i32* %3, align 4
  store i32 0, i32* %4, align 4
  br label %36

36:                                               ; preds = %33, %29
  br label %37

37:                                               ; preds = %36, %19
  br label %6

38:                                               ; preds = %6
  %39 = load i32, i32* %3, align 4
  store i32 %39, i32* %4, align 4
  br label %40

40:                                               ; preds = %49, %38
  %41 = load i32, i32* %4, align 4
  %42 = icmp sgt i32 %41, 0
  br i1 %42, label %43, label %52

43:                                               ; preds = %40
  %44 = load i32, i32* %4, align 4
  %45 = sext i32 %44 to i64
  %46 = getelementptr inbounds [100 x [10 x i8]], [100 x [10 x i8]]* %1, i64 0, i64 %45
  %47 = getelementptr inbounds [10 x i8], [10 x i8]* %46, i64 0, i64 0
  %48 = call i32 (i8*, ...) @printf(i8* getelementptr inbounds ([4 x i8], [4 x i8]* @.str.1, i64 0, i64 0), i8* %47)
  br label %49

49:                                               ; preds = %43
  %50 = load i32, i32* %4, align 4
  %51 = sub nsw i32 %50, 1
  store i32 %51, i32* %4, align 4
  br label %40

52:                                               ; preds = %40
  %53 = getelementptr inbounds [100 x [10 x i8]], [100 x [10 x i8]]* %1, i64 0, i64 0
  %54 = getelementptr inbounds [10 x i8], [10 x i8]* %53, i64 0, i64 0
  %55 = call i32 (i8*, ...) @printf(i8* getelementptr inbounds ([3 x i8], [3 x i8]* @.str.2, i64 0, i64 0), i8* %54)
  ret void
}

; Function Attrs: argmemonly nounwind willreturn
declare void @llvm.memset.p0i8.i64(i8* nocapture writeonly, i8, i64, i1 immarg) #1

declare dso_local i32 @__isoc99_scanf(i8*, ...) #2

declare dso_local i32 @printf(i8*, ...) #2


!llvm.module.flags = !{!0}
!llvm.ident = !{!1}

!0 = !{i32 1, !"wchar_size", i32 4}
!1 = !{!"clang version 10.0.0-4ubuntu1 "}
